target datalayout = "e-m:e-p270:32:32-p271:32:32-p272:64:64-i64:64-i128:128-f80:128-n8:16:32:64-S128"
target triple = "x86_64-pc-linux-gnu"

%struct.timespec = type { i64, i64 }

@uv__hrtime.fast_clock_id = internal global i64 -1, align 8

; Function Attrs: nounwind uwtable
define dso_local i64 @uv__hrtime(i32 noundef %0) #0 {
  %2 = alloca i64, align 8
  %3 = alloca i32, align 4
  %4 = alloca %struct.timespec, align 8
  %5 = alloca i64, align 8
  %6 = alloca i32, align 4
  store i32 %0, ptr %3, align 4, !tbaa !24
  call void @llvm.lifetime.start.p0(i64 16, ptr %4) #9
  call void @llvm.lifetime.start.p0(i64 8, ptr %5) #9
  store i64 1, ptr %5, align 8, !tbaa !25
  %7 = load i32, ptr %3, align 4, !tbaa !24
  %8 = icmp ne i32 %7, 1
  br i1 %8, label %9, label %10

9:                                                ; preds = %1
  br label %29

10:                                               ; preds = %1
  %11 = load i64, ptr @uv__hrtime.fast_clock_id, align 8, !tbaa !25
  store i64 %11, ptr %5, align 8, !tbaa !25
  %12 = load i64, ptr %5, align 8, !tbaa !25
  %13 = icmp ne i64 %12, -1
  br i1 %13, label %14, label %15

14:                                               ; preds = %10
  br label %29

15:                                               ; preds = %10
  store i64 1, ptr %5, align 8, !tbaa !25
  %16 = call i32 @clock_getres(i32 noundef 6, ptr noundef %4) #9
  %17 = icmp eq i32 0, %16
  br i1 %17, label %18, label %24

18:                                               ; preds = %15
  %19 = getelementptr inbounds nuw %struct.timespec, ptr %4, i32 0, i32 1
  %20 = load i64, ptr %19, align 8, !tbaa !26
  %21 = icmp sle i64 %20, 1000000
  br i1 %21, label %22, label %23

22:                                               ; preds = %18
  store i64 6, ptr %5, align 8, !tbaa !25
  br label %23

23:                                               ; preds = %22, %18
  br label %24

24:                                               ; preds = %23, %15
  br label %25

25:                                               ; preds = %24
  %26 = load i64, ptr %5, align 8, !tbaa !25
  store i64 %26, ptr @uv__hrtime.fast_clock_id, align 8, !tbaa !25
  br label %27

27:                                               ; preds = %25
  br label %28

28:                                               ; preds = %27
  br label %29

29:                                               ; preds = %28, %14, %9
  %30 = load i64, ptr %5, align 8, !tbaa !25
  %31 = trunc i64 %30 to i32
  %32 = call i32 @clock_gettime(i32 noundef %31, ptr noundef %4) #9
  %33 = icmp ne i32 %32, 0
  br i1 %33, label %34, label %35

34:                                               ; preds = %29
  store i64 0, ptr %2, align 8
  store i32 1, ptr %6, align 4
  br label %42

35:                                               ; preds = %29
  %36 = getelementptr inbounds nuw %struct.timespec, ptr %4, i32 0, i32 0
  %37 = load i64, ptr %36, align 8, !tbaa !28
  %38 = mul i64 %37, 1000000000
  %39 = getelementptr inbounds nuw %struct.timespec, ptr %4, i32 0, i32 1
  %40 = load i64, ptr %39, align 8, !tbaa !26
  %41 = add i64 %38, %40
  store i64 %41, ptr %2, align 8
  store i32 1, ptr %6, align 4
  br label %42

42:                                               ; preds = %35, %34
  call void @llvm.lifetime.end.p0(i64 8, ptr %5) #9
  call void @llvm.lifetime.end.p0(i64 16, ptr %4) #9
  %43 = load i64, ptr %2, align 8
  ret i64 %43
}