; Function Attrs: nounwind uwtable
define dso_local i64 @uv__hrtime(i32 noundef %0) local_unnamed_addr #0 {
  %2 = alloca %struct.timespec, align 8
  call void @llvm.lifetime.start.p0(i64 16, ptr nonnull %2) #13
  %.not = icmp eq i32 %0, 1
  br i1 %.not, label %3, label %11

3:                                                ; preds = %1
  %4 = load i64, ptr @uv__hrtime.fast_clock_id, align 8, !tbaa !22
  %.not9 = icmp eq i64 %4, -1
  br i1 %.not9, label %5, label %11

5:                                                ; preds = %3
  %6 = call i32 @clock_getres(i32 noundef 6, ptr noundef nonnull %2) #13
  %7 = icmp eq i32 %6, 0
  %8 = getelementptr inbounds nuw i8, ptr %2, i64 8
  %9 = load i64, ptr %8, align 8
  %10 = icmp slt i64 %9, 1000001
  %or.cond = select i1 %7, i1 %10, i1 false
  %spec.select = select i1 %or.cond, i64 6, i64 1
  store i64 %spec.select, ptr @uv__hrtime.fast_clock_id, align 8, !tbaa !22
  br label %11

11:                                               ; preds = %3, %1, %5
  %.0 = phi i64 [ 1, %1 ], [ %4, %3 ], [ %spec.select, %5 ]
  %12 = trunc nuw nsw i64 %.0 to i32
  %13 = call i32 @clock_gettime(i32 noundef %12, ptr noundef nonnull %2) #13
  %.not10 = icmp eq i32 %13, 0
  br i1 %.not10, label %14, label %20

14:                                               ; preds = %11
  %15 = load i64, ptr %2, align 8, !tbaa !23
  %16 = mul i64 %15, 1000000000
  %17 = getelementptr inbounds nuw i8, ptr %2, i64 8
  %18 = load i64, ptr %17, align 8, !tbaa !25
  %19 = add i64 %16, %18
  br label %20

20:                                               ; preds = %11, %14
  %.07 = phi i64 [ %19, %14 ], [ 0, %11 ]
  call void @llvm.lifetime.end.p0(i64 16, ptr nonnull %2) #13
  ret i64 %.07
}